target datalayout = "e-m:e-p270:32:32-p271:32:32-p272:64:64-i64:64-i128:128-f80:128-n8:16:32:64-S128"
target triple = "x86_64-unknown-linux-gnu"

%"class.icu_75::RegexPattern" = type { %"class.icu_75::UObject", ptr, ptr, i32, ptr, %"class.icu_75::UnicodeString", ptr, ptr, i32, i32, i32, i32, ptr, i32, i32, i32, ptr, i32, ptr, i8, ptr }
%"class.icu_75::UObject" = type { ptr }
%"class.icu_75::UnicodeString" = type { %"class.icu_75::Replaceable", %"union.icu_75::UnicodeString::StackBufferOrFields" }
%"class.icu_75::Replaceable" = type { %"class.icu_75::UObject" }
%"union.icu_75::UnicodeString::StackBufferOrFields" = type { %struct.anon.0, [32 x i8] }
%struct.anon.0 = type { i16, i32, i32, ptr }
%struct.UText = type { i32, i32, i32, i32, i64, i32, i32, i64, i32, i32, ptr, ptr, ptr, ptr, ptr, ptr, ptr, ptr, i64, i32, i32, i64, i32, i32 }

; Function Attrs: mustprogress nounwind uwtable
define linkonce_odr noundef i32 @_ZNK6icu_7513UnicodeString14getShortLengthEv(ptr noundef nonnull align 8 dereferenceable(64) %this) #0 comdat align 2 {
entry:
  %this.addr = alloca ptr, align 8
  store ptr %this, ptr %this.addr, align 8
  %this1 = load ptr, ptr %this.addr, align 8
  %fUnion = getelementptr inbounds %"class.icu_75::UnicodeString", ptr %this1, i32 0, i32 1
  %fLengthAndFlags = getelementptr inbounds %struct.anon.0, ptr %fUnion, i32 0, i32 0
  %0 = load i16, ptr %fLengthAndFlags, align 8
  %conv = sext i16 %0 to i32
  %shr = ashr i32 %conv, 5
  ret i32 %shr
}

; Function Attrs: mustprogress nounwind uwtable
define linkonce_odr noundef signext i8 @_ZNK6icu_7513UnicodeString14hasShortLengthEv(ptr noundef nonnull align 8 dereferenceable(64) %this) #0 comdat align 2 {
entry:
  %this.addr = alloca ptr, align 8
  store ptr %this, ptr %this.addr, align 8
  %this1 = load ptr, ptr %this.addr, align 8
  %fUnion = getelementptr inbounds %"class.icu_75::UnicodeString", ptr %this1, i32 0, i32 1
  %fLengthAndFlags = getelementptr inbounds %struct.anon.0, ptr %fUnion, i32 0, i32 0
  %0 = load i16, ptr %fLengthAndFlags, align 8
  %conv = sext i16 %0 to i32
  %cmp = icmp sge i32 %conv, 0
  %conv2 = zext i1 %cmp to i8
  ret i8 %conv2
}

; Function Attrs: mustprogress uwtable
define linkonce_odr noundef i32 @_ZNK6icu_7513UnicodeString6lengthEv(ptr noundef nonnull align 8 dereferenceable(64) %this) #1 comdat align 2 {
entry:
  %this.addr = alloca ptr, align 8
  store ptr %this, ptr %this.addr, align 8
  %this1 = load ptr, ptr %this.addr, align 8
  %call = call noundef signext i8 @_ZNK6icu_7513UnicodeString14hasShortLengthEv(ptr noundef nonnull align 8 dereferenceable(64) %this1)
  %tobool = icmp ne i8 %call, 0
  br i1 %tobool, label %cond.true, label %cond.false

cond.true:                                        ; preds = %entry
  %call2 = call noundef i32 @_ZNK6icu_7513UnicodeString14getShortLengthEv(ptr noundef nonnull align 8 dereferenceable(64) %this1)
  br label %cond.end

cond.false:                                       ; preds = %entry
  %fUnion = getelementptr inbounds %"class.icu_75::UnicodeString", ptr %this1, i32 0, i32 1
  %fLength = getelementptr inbounds %struct.anon.0, ptr %fUnion, i32 0, i32 1
  %0 = load i32, ptr %fLength, align 4
  br label %cond.end

cond.end:                                         ; preds = %cond.false, %cond.true
  %cond = phi i32 [ %call2, %cond.true ], [ %0, %cond.false ]
  ret i32 %cond
}

; Function Attrs: mustprogress nounwind uwtable
define linkonce_odr noundef signext i8 @_ZNK6icu_7513UnicodeString7isBogusEv(ptr noundef nonnull align 8 dereferenceable(64) %this) #0 comdat align 2 {
entry:
  %this.addr = alloca ptr, align 8
  store ptr %this, ptr %this.addr, align 8
  %this1 = load ptr, ptr %this.addr, align 8
  %fUnion = getelementptr inbounds %"class.icu_75::UnicodeString", ptr %this1, i32 0, i32 1
  %fLengthAndFlags = getelementptr inbounds %struct.anon.0, ptr %fUnion, i32 0, i32 0
  %0 = load i16, ptr %fLengthAndFlags, align 8
  %conv = sext i16 %0 to i32
  %and = and i32 %conv, 1
  %conv2 = trunc i32 %and to i8
  ret i8 %conv2
}

; Function Attrs: mustprogress uwtable
define linkonce_odr noundef zeroext i1 @_ZNK6icu_7513UnicodeStringeqERKS0_(ptr noundef nonnull align 8 dereferenceable(64) %this, ptr noundef nonnull align 8 dereferenceable(64) %text) #1 comdat align 2 {
entry:
  %retval = alloca i1, align 1
  %this.addr = alloca ptr, align 8
  %text.addr = alloca ptr, align 8
  %len = alloca i32, align 4
  %textLength = alloca i32, align 4
  store ptr %this, ptr %this.addr, align 8
  store ptr %text, ptr %text.addr, align 8
  %this1 = load ptr, ptr %this.addr, align 8
  %call = call noundef signext i8 @_ZNK6icu_7513UnicodeString7isBogusEv(ptr noundef nonnull align 8 dereferenceable(64) %this1)
  %tobool = icmp ne i8 %call, 0
  br i1 %tobool, label %if.then, label %if.else

if.then:                                          ; preds = %entry
  %0 = load ptr, ptr %text.addr, align 8
  %call2 = call noundef signext i8 @_ZNK6icu_7513UnicodeString7isBogusEv(ptr noundef nonnull align 8 dereferenceable(64) %0)
  %tobool3 = icmp ne i8 %call2, 0
  store i1 %tobool3, ptr %retval, align 1
  br label %return

if.else:                                          ; preds = %entry
  %call4 = call noundef i32 @_ZNK6icu_7513UnicodeString6lengthEv(ptr noundef nonnull align 8 dereferenceable(64) %this1)
  store i32 %call4, ptr %len, align 4
  %1 = load ptr, ptr %text.addr, align 8
  %call5 = call noundef i32 @_ZNK6icu_7513UnicodeString6lengthEv(ptr noundef nonnull align 8 dereferenceable(64) %1)
  store i32 %call5, ptr %textLength, align 4
  %2 = load ptr, ptr %text.addr, align 8
  %call6 = call noundef signext i8 @_ZNK6icu_7513UnicodeString7isBogusEv(ptr noundef nonnull align 8 dereferenceable(64) %2)
  %tobool7 = icmp ne i8 %call6, 0
  br i1 %tobool7, label %land.end, label %land.lhs.true

land.lhs.true:                                    ; preds = %if.else
  %3 = load i32, ptr %len, align 4
  %4 = load i32, ptr %textLength, align 4
  %cmp = icmp eq i32 %3, %4
  br i1 %cmp, label %land.rhs, label %land.end

land.rhs:                                         ; preds = %land.lhs.true
  %5 = load ptr, ptr %text.addr, align 8
  %6 = load i32, ptr %len, align 4
  %call8 = call noundef signext i8 @_ZNK6icu_7513UnicodeString8doEqualsERKS0_i(ptr noundef nonnull align 8 dereferenceable(64) %this1, ptr noundef nonnull align 8 dereferenceable(64) %5, i32 noundef %6)
  %tobool9 = icmp ne i8 %call8, 0
  br label %land.end

land.end:                                         ; preds = %land.rhs, %land.lhs.true, %if.else
  %7 = phi i1 [ false, %land.lhs.true ], [ false, %if.else ], [ %tobool9, %land.rhs ]
  store i1 %7, ptr %retval, align 1
  br label %return

return:                                           ; preds = %land.end, %if.then
  %8 = load i1, ptr %retval, align 1
  ret i1 %8
}

; Function Attrs: mustprogress uwtable
define noundef zeroext i1 @_ZNK6icu_7512RegexPatterneqERKS0_(ptr noundef nonnull align 8 dereferenceable(200) %this, ptr noundef nonnull align 8 dereferenceable(200) %other) #1 align 2 {
entry:
  %retval = alloca i1, align 1
  %this.addr = alloca ptr, align 8
  %other.addr = alloca ptr, align 8
  %__offset = alloca i64, align 8
  %__offset37 = alloca i64, align 8
  store ptr %this, ptr %this.addr, align 8
  store ptr %other, ptr %other.addr, align 8
  %this1 = load ptr, ptr %this.addr, align 8
  %fFlags = getelementptr inbounds %"class.icu_75::RegexPattern", ptr %this1, i32 0, i32 3
  %0 = load i32, ptr %fFlags, align 8
  %1 = load ptr, ptr %other.addr, align 8
  %fFlags2 = getelementptr inbounds %"class.icu_75::RegexPattern", ptr %1, i32 0, i32 3
  %2 = load i32, ptr %fFlags2, align 8
  %cmp = icmp eq i32 %0, %2
  br i1 %cmp, label %land.lhs.true, label %if.end67

land.lhs.true:                                    ; preds = %entry
  %fDeferredStatus = getelementptr inbounds %"class.icu_75::RegexPattern", ptr %this1, i32 0, i32 8
  %3 = load i32, ptr %fDeferredStatus, align 8
  %4 = load ptr, ptr %other.addr, align 8
  %fDeferredStatus3 = getelementptr inbounds %"class.icu_75::RegexPattern", ptr %4, i32 0, i32 8
  %5 = load i32, ptr %fDeferredStatus3, align 8
  %cmp4 = icmp eq i32 %3, %5
  br i1 %cmp4, label %if.then, label %if.end67

if.then:                                          ; preds = %land.lhs.true
  %fPatternString = getelementptr inbounds %"class.icu_75::RegexPattern", ptr %this1, i32 0, i32 2
  %6 = load ptr, ptr %fPatternString, align 8
  %cmp5 = icmp ne ptr %6, null
  br i1 %cmp5, label %land.lhs.true6, label %if.else

land.lhs.true6:                                   ; preds = %if.then
  %7 = load ptr, ptr %other.addr, align 8
  %fPatternString7 = getelementptr inbounds %"class.icu_75::RegexPattern", ptr %7, i32 0, i32 2
  %8 = load ptr, ptr %fPatternString7, align 8
  %cmp8 = icmp ne ptr %8, null
  br i1 %cmp8, label %if.then9, label %if.else

if.then9:                                         ; preds = %land.lhs.true6
  %fPatternString10 = getelementptr inbounds %"class.icu_75::RegexPattern", ptr %this1, i32 0, i32 2
  %9 = load ptr, ptr %fPatternString10, align 8
  %10 = load ptr, ptr %other.addr, align 8
  %fPatternString11 = getelementptr inbounds %"class.icu_75::RegexPattern", ptr %10, i32 0, i32 2
  %11 = load ptr, ptr %fPatternString11, align 8
  %call = call noundef zeroext i1 @_ZNK6icu_7513UnicodeStringeqERKS0_(ptr noundef nonnull align 8 dereferenceable(64) %9, ptr noundef nonnull align 8 dereferenceable(64) %11)
  store i1 %call, ptr %retval, align 1
  br label %return

if.else:                                          ; preds = %land.lhs.true6, %if.then
  %fPattern = getelementptr inbounds %"class.icu_75::RegexPattern", ptr %this1, i32 0, i32 1
  %12 = load ptr, ptr %fPattern, align 8
  %cmp12 = icmp eq ptr %12, null
  br i1 %cmp12, label %if.then13, label %if.else17

if.then13:                                        ; preds = %if.else
  %13 = load ptr, ptr %other.addr, align 8
  %fPattern14 = getelementptr inbounds %"class.icu_75::RegexPattern", ptr %13, i32 0, i32 1
  %14 = load ptr, ptr %fPattern14, align 8
  %cmp15 = icmp eq ptr %14, null
  br i1 %cmp15, label %if.then16, label %if.end

if.then16:                                        ; preds = %if.then13
  store i1 true, ptr %retval, align 1
  br label %return

if.end:                                           ; preds = %if.then13
  br label %if.end65

if.else17:                                        ; preds = %if.else
  %15 = load ptr, ptr %other.addr, align 8
  %fPattern18 = getelementptr inbounds %"class.icu_75::RegexPattern", ptr %15, i32 0, i32 1
  %16 = load ptr, ptr %fPattern18, align 8
  %cmp19 = icmp ne ptr %16, null
  br i1 %cmp19, label %if.then20, label %if.end64

if.then20:                                        ; preds = %if.else17
  br label %do.body

do.body:                                          ; preds = %if.then20
  %fPattern21 = getelementptr inbounds %"class.icu_75::RegexPattern", ptr %this1, i32 0, i32 1
  %17 = load ptr, ptr %fPattern21, align 8
  %chunkNativeStart = getelementptr inbounds %struct.UText, ptr %17, i32 0, i32 7
  %18 = load i64, ptr %chunkNativeStart, align 8
  %sub = sub nsw i64 0, %18
  store i64 %sub, ptr %__offset, align 8
  %19 = load i64, ptr %__offset, align 8
  %cmp22 = icmp sge i64 %19, 0
  br i1 %cmp22, label %land.lhs.true23, label %if.else33

land.lhs.true23:                                  ; preds = %do.body
  %20 = load i64, ptr %__offset, align 8
  %fPattern24 = getelementptr inbounds %"class.icu_75::RegexPattern", ptr %this1, i32 0, i32 1
  %21 = load ptr, ptr %fPattern24, align 8
  %nativeIndexingLimit = getelementptr inbounds %struct.UText, ptr %21, i32 0, i32 6
  %22 = load i32, ptr %nativeIndexingLimit, align 4
  %conv = sext i32 %22 to i64
  %cmp25 = icmp slt i64 %20, %conv
  br i1 %cmp25, label %land.lhs.true26, label %if.else33

land.lhs.true26:                                  ; preds = %land.lhs.true23
  %fPattern27 = getelementptr inbounds %"class.icu_75::RegexPattern", ptr %this1, i32 0, i32 1
  %23 = load ptr, ptr %fPattern27, align 8
  %chunkContents = getelementptr inbounds %struct.UText, ptr %23, i32 0, i32 10
  %24 = load ptr, ptr %chunkContents, align 8
  %25 = load i64, ptr %__offset, align 8
  %arrayidx = getelementptr inbounds i16, ptr %24, i64 %25
  %26 = load i16, ptr %arrayidx, align 2
  %conv28 = zext i16 %26 to i32
  %cmp29 = icmp slt i32 %conv28, 56320
  br i1 %cmp29, label %if.then30, label %if.else33

if.then30:                                        ; preds = %land.lhs.true26
  %27 = load i64, ptr %__offset, align 8
  %conv31 = trunc i64 %27 to i32
  %fPattern32 = getelementptr inbounds %"class.icu_75::RegexPattern", ptr %this1, i32 0, i32 1
  %28 = load ptr, ptr %fPattern32, align 8
  %chunkOffset = getelementptr inbounds %struct.UText, ptr %28, i32 0, i32 8
  store i32 %conv31, ptr %chunkOffset, align 8
  br label %if.end35

if.else33:                                        ; preds = %land.lhs.true26, %land.lhs.true23, %do.body
  %fPattern34 = getelementptr inbounds %"class.icu_75::RegexPattern", ptr %this1, i32 0, i32 1
  %29 = load ptr, ptr %fPattern34, align 8
  call void @utext_setNativeIndex_75(ptr noundef %29, i64 noundef 0)
  br label %if.end35

if.end35:                                         ; preds = %if.else33, %if.then30
  br label %do.end

do.end:                                           ; preds = %if.end35
  br label %do.body36

do.body36:                                        ; preds = %do.end
  %30 = load ptr, ptr %other.addr, align 8
  %fPattern38 = getelementptr inbounds %"class.icu_75::RegexPattern", ptr %30, i32 0, i32 1
  %31 = load ptr, ptr %fPattern38, align 8
  %chunkNativeStart39 = getelementptr inbounds %struct.UText, ptr %31, i32 0, i32 7
  %32 = load i64, ptr %chunkNativeStart39, align 8
  %sub40 = sub nsw i64 0, %32
  store i64 %sub40, ptr %__offset37, align 8
  %33 = load i64, ptr %__offset37, align 8
  %cmp41 = icmp sge i64 %33, 0
  br i1 %cmp41, label %land.lhs.true42, label %if.else57

land.lhs.true42:                                  ; preds = %do.body36
  %34 = load i64, ptr %__offset37, align 8
  %35 = load ptr, ptr %other.addr, align 8
  %fPattern43 = getelementptr inbounds %"class.icu_75::RegexPattern", ptr %35, i32 0, i32 1
  %36 = load ptr, ptr %fPattern43, align 8
  %nativeIndexingLimit44 = getelementptr inbounds %struct.UText, ptr %36, i32 0, i32 6
  %37 = load i32, ptr %nativeIndexingLimit44, align 4
  %conv45 = sext i32 %37 to i64
  %cmp46 = icmp slt i64 %34, %conv45
  br i1 %cmp46, label %land.lhs.true47, label %if.else57

land.lhs.true47:                                  ; preds = %land.lhs.true42
  %38 = load ptr, ptr %other.addr, align 8
  %fPattern48 = getelementptr inbounds %"class.icu_75::RegexPattern", ptr %38, i32 0, i32 1
  %39 = load ptr, ptr %fPattern48, align 8
  %chunkContents49 = getelementptr inbounds %struct.UText, ptr %39, i32 0, i32 10
  %40 = load ptr, ptr %chunkContents49, align 8
  %41 = load i64, ptr %__offset37, align 8
  %arrayidx50 = getelementptr inbounds i16, ptr %40, i64 %41
  %42 = load i16, ptr %arrayidx50, align 2
  %conv51 = zext i16 %42 to i32
  %cmp52 = icmp slt i32 %conv51, 56320
  br i1 %cmp52, label %if.then53, label %if.else57

if.then53:                                        ; preds = %land.lhs.true47
  %43 = load i64, ptr %__offset37, align 8
  %conv54 = trunc i64 %43 to i32
  %44 = load ptr, ptr %other.addr, align 8
  %fPattern55 = getelementptr inbounds %"class.icu_75::RegexPattern", ptr %44, i32 0, i32 1
  %45 = load ptr, ptr %fPattern55, align 8
  %chunkOffset56 = getelementptr inbounds %struct.UText, ptr %45, i32 0, i32 8
  store i32 %conv54, ptr %chunkOffset56, align 8
  br label %if.end59

if.else57:                                        ; preds = %land.lhs.true47, %land.lhs.true42, %do.body36
  %46 = load ptr, ptr %other.addr, align 8
  %fPattern58 = getelementptr inbounds %"class.icu_75::RegexPattern", ptr %46, i32 0, i32 1
  %47 = load ptr, ptr %fPattern58, align 8
  call void @utext_setNativeIndex_75(ptr noundef %47, i64 noundef 0)
  br label %if.end59

if.end59:                                         ; preds = %if.else57, %if.then53
  br label %do.end60

do.end60:                                         ; preds = %if.end59
  %fPattern61 = getelementptr inbounds %"class.icu_75::RegexPattern", ptr %this1, i32 0, i32 1
  %48 = load ptr, ptr %fPattern61, align 8
  %49 = load ptr, ptr %other.addr, align 8
  %fPattern62 = getelementptr inbounds %"class.icu_75::RegexPattern", ptr %49, i32 0, i32 1
  %50 = load ptr, ptr %fPattern62, align 8
  %call63 = call signext i8 @utext_equals_75(ptr noundef %48, ptr noundef %50)
  %tobool = icmp ne i8 %call63, 0
  store i1 %tobool, ptr %retval, align 1
  br label %return

if.end64:                                         ; preds = %if.else17
  br label %if.end65

if.end65:                                         ; preds = %if.end64, %if.end
  br label %if.end66

if.end66:                                         ; preds = %if.end65
  br label %if.end67

if.end67:                                         ; preds = %if.end66, %land.lhs.true, %entry
  store i1 false, ptr %retval, align 1
  br label %return

return:                                           ; preds = %if.end67, %do.end60, %if.then16, %if.then9
  %51 = load i1, ptr %retval, align 1
  ret i1 %51
}