; Function Attrs: mustprogress uwtable
define noundef zeroext i1 @_ZNK6icu_7512RegexPatterneqERKS0_(ptr nocapture noundef nonnull readonly align 8 dereferenceable(200) %this, ptr nocapture noundef nonnull readonly align 8 dereferenceable(200) %other) local_unnamed_addr #1 align 2 {
entry:
  %fFlags = getelementptr inbounds i8, ptr %this, i64 24
  %0 = load i32, ptr %fFlags, align 8
  %fFlags2 = getelementptr inbounds i8, ptr %other, i64 24
  %1 = load i32, ptr %fFlags2, align 8
  %cmp = icmp eq i32 %0, %1
  br i1 %cmp, label %land.lhs.true, label %if.end67

land.lhs.true:                                    ; preds = %entry
  %fDeferredStatus = getelementptr inbounds i8, ptr %this, i64 120
  %2 = load i32, ptr %fDeferredStatus, align 8
  %fDeferredStatus3 = getelementptr inbounds i8, ptr %other, i64 120
  %3 = load i32, ptr %fDeferredStatus3, align 8
  %cmp4 = icmp eq i32 %2, %3
  br i1 %cmp4, label %if.then, label %if.end67

if.then:                                          ; preds = %land.lhs.true
  %fPatternString = getelementptr inbounds i8, ptr %this, i64 16
  %4 = load ptr, ptr %fPatternString, align 8
  %cmp5.not = icmp eq ptr %4, null
  br i1 %cmp5.not, label %if.else, label %land.lhs.true6

land.lhs.true6:                                   ; preds = %if.then
  %fPatternString7 = getelementptr inbounds i8, ptr %other, i64 16
  %5 = load ptr, ptr %fPatternString7, align 8
  %cmp8.not = icmp eq ptr %5, null
  br i1 %cmp8.not, label %if.else, label %if.then9

if.then9:                                         ; preds = %land.lhs.true6
  %fUnion.i.i = getelementptr inbounds i8, ptr %4, i64 8
  %6 = load i16, ptr %fUnion.i.i, align 8
  %conv2.i14.i = and i16 %6, 1
  %tobool.not.i = icmp eq i16 %conv2.i14.i, 0
  br i1 %tobool.not.i, label %if.else.i, label %if.then.i

if.then.i:                                        ; preds = %if.then9
  %fUnion.i5.i = getelementptr inbounds i8, ptr %5, i64 8
  %7 = load i16, ptr %fUnion.i5.i, align 8
  %conv2.i615.i = and i16 %7, 1
  %tobool3.i = icmp ne i16 %conv2.i615.i, 0
  br label %return

if.else.i:                                        ; preds = %if.then9
  %cmp.i.i.i = icmp slt i16 %6, 0
  %8 = ashr i16 %6, 5
  %shr.i.i.i = sext i16 %8 to i32
  %fLength.i.i = getelementptr inbounds i8, ptr %4, i64 12
  %9 = load i32, ptr %fLength.i.i, align 4
  %cond.i.i = select i1 %cmp.i.i.i, i32 %9, i32 %shr.i.i.i
  %fUnion.i.i7.i = getelementptr inbounds i8, ptr %5, i64 8
  %10 = load i16, ptr %fUnion.i.i7.i, align 8
  %cmp.i.i8.i = icmp slt i16 %10, 0
  %11 = ashr i16 %10, 5
  %shr.i.i9.i = sext i16 %11 to i32
  %fLength.i10.i = getelementptr inbounds i8, ptr %5, i64 12
  %12 = load i32, ptr %fLength.i10.i, align 4
  %cond.i11.i = select i1 %cmp.i.i8.i, i32 %12, i32 %shr.i.i9.i
  %conv2.i1316.i = and i16 %10, 1
  %tobool7.not.i = icmp eq i16 %conv2.i1316.i, 0
  %cmp.i = icmp eq i32 %cond.i.i, %cond.i11.i
  %or.cond.i = and i1 %tobool7.not.i, %cmp.i
  br i1 %or.cond.i, label %land.rhs.i, label %return

land.rhs.i:                                       ; preds = %if.else.i
  %call8.i = tail call noundef signext i8 @_ZNK6icu_7513UnicodeString8doEqualsERKS0_i(ptr noundef nonnull align 8 dereferenceable(64) %4, ptr noundef nonnull align 8 dereferenceable(64) %5, i32 noundef %cond.i.i)
  %tobool9.i = icmp ne i8 %call8.i, 0
  br label %return

if.else:                                          ; preds = %land.lhs.true6, %if.then
  %fPattern = getelementptr inbounds i8, ptr %this, i64 8
  %13 = load ptr, ptr %fPattern, align 8
  %cmp12 = icmp eq ptr %13, null
  %fPattern14 = getelementptr inbounds i8, ptr %other, i64 8
  %14 = load ptr, ptr %fPattern14, align 8
  %cmp15 = icmp eq ptr %14, null
  br i1 %cmp12, label %if.then13, label %if.else17

if.then13:                                        ; preds = %if.else
  br i1 %cmp15, label %return, label %if.end67

if.else17:                                        ; preds = %if.else
  br i1 %cmp15, label %if.end67, label %do.body

do.body:                                          ; preds = %if.else17
  %chunkNativeStart = getelementptr inbounds i8, ptr %13, i64 32
  %15 = load i64, ptr %chunkNativeStart, align 8
  %sub = sub nsw i64 0, %15
  %cmp22 = icmp slt i64 %15, 1
  br i1 %cmp22, label %land.lhs.true23, label %if.else33

land.lhs.true23:                                  ; preds = %do.body
  %nativeIndexingLimit = getelementptr inbounds i8, ptr %13, i64 28
  %16 = load i32, ptr %nativeIndexingLimit, align 4
  %conv = sext i32 %16 to i64
  %cmp25 = icmp slt i64 %sub, %conv
  br i1 %cmp25, label %land.lhs.true26, label %if.else33

land.lhs.true26:                                  ; preds = %land.lhs.true23
  %chunkContents = getelementptr inbounds i8, ptr %13, i64 48
  %17 = load ptr, ptr %chunkContents, align 8
  %arrayidx = getelementptr inbounds i16, ptr %17, i64 %sub
  %18 = load i16, ptr %arrayidx, align 2
  %cmp29 = icmp ult i16 %18, -9216
  br i1 %cmp29, label %if.then30, label %if.else33

if.then30:                                        ; preds = %land.lhs.true26
  %conv31 = trunc i64 %sub to i32
  %chunkOffset = getelementptr inbounds i8, ptr %13, i64 40
  store i32 %conv31, ptr %chunkOffset, align 8
  br label %do.body36

if.else33:                                        ; preds = %land.lhs.true26, %land.lhs.true23, %do.body
  tail call void @utext_setNativeIndex_75(ptr noundef nonnull %13, i64 noundef 0)
  br label %do.body36

do.body36:                                        ; preds = %if.else33, %if.then30
  %19 = load ptr, ptr %fPattern14, align 8
  %chunkNativeStart39 = getelementptr inbounds i8, ptr %19, i64 32
  %20 = load i64, ptr %chunkNativeStart39, align 8
  %sub40 = sub nsw i64 0, %20
  %cmp41 = icmp slt i64 %20, 1
  br i1 %cmp41, label %land.lhs.true42, label %if.else57

land.lhs.true42:                                  ; preds = %do.body36
  %nativeIndexingLimit44 = getelementptr inbounds i8, ptr %19, i64 28
  %21 = load i32, ptr %nativeIndexingLimit44, align 4
  %conv45 = sext i32 %21 to i64
  %cmp46 = icmp slt i64 %sub40, %conv45
  br i1 %cmp46, label %land.lhs.true47, label %if.else57

land.lhs.true47:                                  ; preds = %land.lhs.true42
  %chunkContents49 = getelementptr inbounds i8, ptr %19, i64 48
  %22 = load ptr, ptr %chunkContents49, align 8
  %arrayidx50 = getelementptr inbounds i16, ptr %22, i64 %sub40
  %23 = load i16, ptr %arrayidx50, align 2
  %cmp52 = icmp ult i16 %23, -9216
  br i1 %cmp52, label %if.then53, label %if.else57

if.then53:                                        ; preds = %land.lhs.true47
  %conv54 = trunc i64 %sub40 to i32
  %chunkOffset56 = getelementptr inbounds i8, ptr %19, i64 40
  store i32 %conv54, ptr %chunkOffset56, align 8
  br label %do.end60

if.else57:                                        ; preds = %land.lhs.true47, %land.lhs.true42, %do.body36
  tail call void @utext_setNativeIndex_75(ptr noundef nonnull %19, i64 noundef 0)
  br label %do.end60

do.end60:                                         ; preds = %if.then53, %if.else57
  %24 = load ptr, ptr %fPattern, align 8
  %25 = load ptr, ptr %fPattern14, align 8
  %call63 = tail call signext i8 @utext_equals_75(ptr noundef %24, ptr noundef %25)
  %tobool = icmp ne i8 %call63, 0
  br label %return

if.end67:                                         ; preds = %if.else17, %if.then13, %land.lhs.true, %entry
  br label %return

return:                                           ; preds = %land.rhs.i, %if.else.i, %if.then.i, %if.then13, %if.end67, %do.end60
  %retval.0 = phi i1 [ false, %if.end67 ], [ %tobool, %do.end60 ], [ true, %if.then13 ], [ %tobool3.i, %if.then.i ], [ false, %if.else.i ], [ %tobool9.i, %land.rhs.i ]
  ret i1 %retval.0
}